((dp0
(dp1
S'9788879839907'
p2
S'B3'
p3
sS'8879836064'
p4
S'B4'
p5
sS'8817153621'
p6
S'B4'
p7
sS'9788854118553'
p8
S'B4'
p9
sS'8845050645'
p10
S'b4'
p11
sS'8817153583'
p12
S'B3'
p13
s(dp14
S'notre-dame di parigi'
p15
S'8817153583'
p16
sS'frankenstein'
p17
g4
sS'romanzi'
p18
g10
sS"l'idiota"
p19
g2
sS'robin hood'
p20
g8
sS'il giro del mondo in ottanta giorni'
p21
g6
s(dp22
g2
g19
sg4
g17
sg6
g21
sg8
g20
sg10
g18
sg12
S'notre-dame di parigi'
p23
stp24
.